target datalayout = "e-m:e-p270:32:32-p271:32:32-p272:64:64-i64:64-i128:128-f80:128-n8:16:32:64-S128"
target triple = "x86_64-pc-linux-gnu"

%struct.ident_t = type { i32, i32, i32, i32, ptr }
%"class.LightGBM::RegressionL2loss" = type <{ %"class.LightGBM::ObjectiveFunction", i8, [3 x i8], i32, ptr, ptr, %"class.std::vector", i8, [7 x i8] }>
%"class.LightGBM::ObjectiveFunction" = type { ptr }
%"class.std::vector" = type { %"struct.std::_Vector_base" }
%"struct.std::_Vector_base" = type { %"struct.std::_Vector_base<float, std::allocator<float>>::_Vector_impl" }
%"struct.std::_Vector_base<float, std::allocator<float>>::_Vector_impl" = type { %"struct.std::_Vector_base<float, std::allocator<float>>::_Vector_impl_data" }
%"struct.std::_Vector_base<float, std::allocator<float>>::_Vector_impl_data" = type { ptr, ptr, ptr }

@1 = private unnamed_addr constant %struct.ident_t { i32 0, i32 514, i32 0, i32 22, ptr @0 }, align 8

; Function Attrs: alwaysinline norecurse nounwind uwtable
define internal void @_ZNK8LightGBM21RegressionPoissonLoss12GetGradientsEPKdPfS3_.omp_outlined.40(ptr noalias noundef %0, ptr noalias noundef %1, ptr noundef %2, ptr noundef nonnull align 8 dereferenceable(8) %3, ptr noundef nonnull align 8 dereferenceable(8) %4, ptr noundef nonnull align 8 dereferenceable(8) %5, ptr noundef nonnull align 8 dereferenceable(8) %6) #16 {
  %8 = alloca ptr, align 8
  %9 = alloca ptr, align 8
  %10 = alloca ptr, align 8
  %11 = alloca ptr, align 8
  %12 = alloca ptr, align 8
  %13 = alloca ptr, align 8
  %14 = alloca ptr, align 8
  %15 = alloca i32, align 4
  %16 = alloca i32, align 4
  %17 = alloca i32, align 4
  %18 = alloca i32, align 4
  %19 = alloca i32, align 4
  %20 = alloca i32, align 4
  %21 = alloca i32, align 4
  %22 = alloca i32, align 4
  %23 = alloca i32, align 4
  %24 = alloca double, align 8
  store ptr %0, ptr %8, align 8, !tbaa !193
  store ptr %1, ptr %9, align 8, !tbaa !193
  store ptr %2, ptr %10, align 8, !tbaa !87
  store ptr %3, ptr %11, align 8, !tbaa !224
  store ptr %4, ptr %12, align 8, !tbaa !216
  store ptr %5, ptr %13, align 8, !tbaa !216
  store ptr %6, ptr %14, align 8, !tbaa !191
  %25 = load ptr, ptr %10, align 8, !tbaa !87
  %26 = load ptr, ptr %11, align 8, !tbaa !224
  %27 = load ptr, ptr %12, align 8, !tbaa !216
  %28 = load ptr, ptr %13, align 8, !tbaa !216
  %29 = load ptr, ptr %14, align 8, !tbaa !191
  call void @llvm.lifetime.start.p0(i64 4, ptr %15) #3
  call void @llvm.lifetime.start.p0(i64 4, ptr %16) #3
  %30 = getelementptr inbounds nuw %"class.LightGBM::RegressionL2loss", ptr %25, i32 0, i32 3
  %31 = load i32, ptr %30, align 4, !tbaa !188
  store i32 %31, ptr %16, align 4, !tbaa !141
  call void @llvm.lifetime.start.p0(i64 4, ptr %17) #3
  %32 = load i32, ptr %16, align 4, !tbaa !141
  %33 = sub nsw i32 %32, 0
  %34 = sdiv i32 %33, 1
  %35 = sub nsw i32 %34, 1
  store i32 %35, ptr %17, align 4, !tbaa !141
  call void @llvm.lifetime.start.p0(i64 4, ptr %18) #3
  store i32 0, ptr %18, align 4, !tbaa !141
  call void @llvm.lifetime.end.p0(i64 4, ptr %18) #3
  %36 = load i32, ptr %16, align 4, !tbaa !141
  %37 = icmp slt i32 0, %36
  br i1 %37, label %38, label %113

38:                                               ; preds = %7
  call void @llvm.lifetime.start.p0(i64 4, ptr %19) #3
  store i32 0, ptr %19, align 4, !tbaa !141
  call void @llvm.lifetime.start.p0(i64 4, ptr %20) #3
  %39 = load i32, ptr %17, align 4, !tbaa !141
  store i32 %39, ptr %20, align 4, !tbaa !141
  call void @llvm.lifetime.start.p0(i64 4, ptr %21) #3
  store i32 1, ptr %21, align 4, !tbaa !141
  call void @llvm.lifetime.start.p0(i64 4, ptr %22) #3
  store i32 0, ptr %22, align 4, !tbaa !141
  call void @llvm.lifetime.start.p0(i64 4, ptr %23) #3
  %40 = load ptr, ptr %8, align 8
  %41 = load i32, ptr %40, align 4, !tbaa !141
  call void @__kmpc_for_static_init_4(ptr @1, i32 %41, i32 34, ptr %22, ptr %19, ptr %20, ptr %21, i32 1, i32 1)
  %42 = load i32, ptr %20, align 4, !tbaa !141
  %43 = load i32, ptr %17, align 4, !tbaa !141
  %44 = icmp sgt i32 %42, %43
  br i1 %44, label %45, label %47

45:                                               ; preds = %38
  %46 = load i32, ptr %17, align 4, !tbaa !141
  br label %49

47:                                               ; preds = %38
  %48 = load i32, ptr %20, align 4, !tbaa !141
  br label %49

49:                                               ; preds = %47, %45
  %50 = phi i32 [ %46, %45 ], [ %48, %47 ]
  store i32 %50, ptr %20, align 4, !tbaa !141
  %51 = load i32, ptr %19, align 4, !tbaa !141
  store i32 %51, ptr %15, align 4, !tbaa !141
  br label %52

52:                                               ; preds = %106, %49
  %53 = load i32, ptr %15, align 4, !tbaa !141
  %54 = load i32, ptr %20, align 4, !tbaa !141
  %55 = icmp sle i32 %53, %54
  br i1 %55, label %57, label %56

56:                                               ; preds = %52
  br label %109

57:                                               ; preds = %52
  %58 = load i32, ptr %15, align 4, !tbaa !141
  %59 = mul nsw i32 %58, 1
  %60 = add nsw i32 0, %59
  store i32 %60, ptr %23, align 4, !tbaa !141
  call void @llvm.lifetime.start.p0(i64 8, ptr %24) #3
  %61 = load ptr, ptr %26, align 8, !tbaa !191
  %62 = load i32, ptr %23, align 4, !tbaa !141
  %63 = sext i32 %62 to i64
  %64 = getelementptr inbounds double, ptr %61, i64 %63
  %65 = load double, ptr %64, align 8, !tbaa !194
  %66 = call double @exp(double noundef %65) #3, !tbaa !141
  store double %66, ptr %24, align 8, !tbaa !194
  %67 = load double, ptr %24, align 8, !tbaa !194
  %68 = getelementptr inbounds nuw %"class.LightGBM::RegressionL2loss", ptr %25, i32 0, i32 4
  %69 = load ptr, ptr %68, align 8, !tbaa !189
  %70 = load i32, ptr %23, align 4, !tbaa !141
  %71 = sext i32 %70 to i64
  %72 = getelementptr inbounds float, ptr %69, i64 %71
  %73 = load float, ptr %72, align 4, !tbaa !210
  %74 = fpext float %73 to double
  %75 = fsub double %67, %74
  %76 = getelementptr inbounds nuw %"class.LightGBM::RegressionL2loss", ptr %25, i32 0, i32 5
  %77 = load ptr, ptr %76, align 8, !tbaa !190
  %78 = load i32, ptr %23, align 4, !tbaa !141
  %79 = sext i32 %78 to i64
  %80 = getelementptr inbounds float, ptr %77, i64 %79
  %81 = load float, ptr %80, align 4, !tbaa !210
  %82 = fpext float %81 to double
  %83 = fmul double %75, %82
  %84 = fptrunc double %83 to float
  %85 = load ptr, ptr %27, align 8, !tbaa !192
  %86 = load i32, ptr %23, align 4, !tbaa !141
  %87 = sext i32 %86 to i64
  %88 = getelementptr inbounds float, ptr %85, i64 %87
  store float %84, ptr %88, align 4, !tbaa !210
  %89 = load double, ptr %24, align 8, !tbaa !194
  %90 = load double, ptr %29, align 8, !tbaa !194
  %91 = fmul double %89, %90
  %92 = getelementptr inbounds nuw %"class.LightGBM::RegressionL2loss", ptr %25, i32 0, i32 5
  %93 = load ptr, ptr %92, align 8, !tbaa !190
  %94 = load i32, ptr %23, align 4, !tbaa !141
  %95 = sext i32 %94 to i64
  %96 = getelementptr inbounds float, ptr %93, i64 %95
  %97 = load float, ptr %96, align 4, !tbaa !210
  %98 = fpext float %97 to double
  %99 = fmul double %91, %98
  %100 = fptrunc double %99 to float
  %101 = load ptr, ptr %28, align 8, !tbaa !192
  %102 = load i32, ptr %23, align 4, !tbaa !141
  %103 = sext i32 %102 to i64
  %104 = getelementptr inbounds float, ptr %101, i64 %103
  store float %100, ptr %104, align 4, !tbaa !210
  call void @llvm.lifetime.end.p0(i64 8, ptr %24) #3
  br label %105

105:                                              ; preds = %57
  br label %106

106:                                              ; preds = %105
  %107 = load i32, ptr %15, align 4, !tbaa !141
  %108 = add nsw i32 %107, 1
  store i32 %108, ptr %15, align 4, !tbaa !141
  br label %52

109:                                              ; preds = %56
  br label %110

110:                                              ; preds = %109
  %111 = load ptr, ptr %8, align 8
  %112 = load i32, ptr %111, align 4, !tbaa !141
  call void @__kmpc_for_static_fini(ptr @1, i32 %112)
  call void @llvm.lifetime.end.p0(i64 4, ptr %23) #3
  call void @llvm.lifetime.end.p0(i64 4, ptr %22) #3
  call void @llvm.lifetime.end.p0(i64 4, ptr %21) #3
  call void @llvm.lifetime.end.p0(i64 4, ptr %20) #3
  call void @llvm.lifetime.end.p0(i64 4, ptr %19) #3
  br label %113

113:                                              ; preds = %110, %7
  call void @llvm.lifetime.end.p0(i64 4, ptr %17) #3
  call void @llvm.lifetime.end.p0(i64 4, ptr %16) #3
  call void @llvm.lifetime.end.p0(i64 4, ptr %15) #3
  ret void
}