; Function Attrs: alwaysinline norecurse nounwind uwtable
define internal void @_ZNK8LightGBM21RegressionPoissonLoss12GetGradientsEPKdPfS3_.omp_outlined.40(ptr noalias noundef readonly captures(none) %0, ptr noalias readnone captures(none) %1, ptr noundef readonly captures(none) %2, ptr noundef nonnull readonly align 8 captures(none) dereferenceable(8) %3, ptr noundef nonnull readonly align 8 captures(none) dereferenceable(8) %4, ptr noundef nonnull readonly align 8 captures(none) dereferenceable(8) %5, ptr noundef nonnull readonly align 8 captures(none) dereferenceable(8) %6) #14 {
  %8 = alloca i32, align 4
  %9 = alloca i32, align 4
  %10 = alloca i32, align 4
  %11 = alloca i32, align 4
  %12 = getelementptr inbounds nuw i8, ptr %2, i64 12
  %13 = load i32, ptr %12, align 4, !tbaa !147
  %14 = icmp sgt i32 %13, 0
  br i1 %14, label %15, label %52

15:                                               ; preds = %7
  %16 = add nsw i32 %13, -1
  call void @llvm.lifetime.start.p0(i64 4, ptr nonnull %8) #15
  store i32 0, ptr %8, align 4, !tbaa !127
  call void @llvm.lifetime.start.p0(i64 4, ptr nonnull %9) #15
  store i32 %16, ptr %9, align 4, !tbaa !127
  call void @llvm.lifetime.start.p0(i64 4, ptr nonnull %10) #15
  store i32 1, ptr %10, align 4, !tbaa !127
  call void @llvm.lifetime.start.p0(i64 4, ptr nonnull %11) #15
  store i32 0, ptr %11, align 4, !tbaa !127
  %17 = load i32, ptr %0, align 4, !tbaa !127
  call void @__kmpc_for_static_init_4(ptr nonnull @1, i32 %17, i32 34, ptr nonnull %11, ptr nonnull %8, ptr nonnull %9, ptr nonnull %10, i32 1, i32 1)
  %18 = load i32, ptr %9, align 4, !tbaa !127
  %19 = call i32 @llvm.smin.i32(i32 %18, i32 %16)
  store i32 %19, ptr %9, align 4, !tbaa !127
  %20 = load i32, ptr %8, align 4, !tbaa !127
  %.not22 = icmp sgt i32 %20, %19
  br i1 %.not22, label %._crit_edge, label %.lr.ph

.lr.ph:                                           ; preds = %15
  %21 = load ptr, ptr %3, align 8, !tbaa !152
  %22 = getelementptr inbounds nuw i8, ptr %2, i64 16
  %23 = load ptr, ptr %22, align 8, !tbaa !148
  %24 = getelementptr inbounds nuw i8, ptr %2, i64 24
  %25 = load ptr, ptr %24, align 8, !tbaa !151
  %26 = load ptr, ptr %4, align 8, !tbaa !150
  %27 = load double, ptr %6, align 8, !tbaa !153
  %28 = load ptr, ptr %5, align 8, !tbaa !150
  %29 = sext i32 %20 to i64
  br label %30

30:                                               ; preds = %.lr.ph, %30
  %indvars.iv = phi i64 [ %29, %.lr.ph ], [ %indvars.iv.next, %30 ]
  %31 = getelementptr inbounds double, ptr %21, i64 %indvars.iv
  %32 = load double, ptr %31, align 8, !tbaa !153
  %33 = call double @exp(double noundef %32) #15, !tbaa !127
  %34 = getelementptr inbounds float, ptr %23, i64 %indvars.iv
  %35 = load float, ptr %34, align 4, !tbaa !175
  %36 = fpext float %35 to double
  %37 = fsub double %33, %36
  %38 = getelementptr inbounds float, ptr %25, i64 %indvars.iv
  %39 = load float, ptr %38, align 4, !tbaa !175
  %40 = fpext float %39 to double
  %41 = fmul double %37, %40
  %42 = fptrunc double %41 to float
  %43 = getelementptr inbounds float, ptr %26, i64 %indvars.iv
  store float %42, ptr %43, align 4, !tbaa !175
  %44 = fmul double %33, %27
  %45 = load float, ptr %38, align 4, !tbaa !175
  %46 = fpext float %45 to double
  %47 = fmul double %44, %46
  %48 = fptrunc double %47 to float
  %49 = getelementptr inbounds float, ptr %28, i64 %indvars.iv
  store float %48, ptr %49, align 4, !tbaa !175
  %indvars.iv.next = add nsw i64 %indvars.iv, 1
  %50 = load i32, ptr %9, align 4, !tbaa !127
  %51 = sext i32 %50 to i64
  %.not.not = icmp slt i64 %indvars.iv, %51
  br i1 %.not.not, label %30, label %._crit_edge

._crit_edge:                                      ; preds = %30, %15
  call void @__kmpc_for_static_fini(ptr nonnull @1, i32 %17)
  call void @llvm.lifetime.end.p0(i64 4, ptr nonnull %11) #15
  call void @llvm.lifetime.end.p0(i64 4, ptr nonnull %10) #15
  call void @llvm.lifetime.end.p0(i64 4, ptr nonnull %9) #15
  call void @llvm.lifetime.end.p0(i64 4, ptr nonnull %8) #15
  br label %52

52:                                               ; preds = %._crit_edge, %7
  ret void
}